target datalayout = "e-m:e-p270:32:32-p271:32:32-p272:64:64-i64:64-i128:128-f80:128-n8:16:32:64-S128"
target triple = "x86_64-pc-linux-gnu"

%struct.H5HF_hdr_t = type { %struct.H5C_cache_entry_t, i32, i32, i8, i8, i8, i8, %struct.H5HF_dtable_t, i64, i64, i32, i64, i64, %struct.H5O_pline_t, i64, i32, i64, i64, i64, i64, i64, i64, i64, i64, i64, i64, i64, i32, ptr, i64, i8, i8, i8, ptr, i32, ptr, %struct.H5HF_block_iter_t, ptr, i64, i8, i8, i64, i8, i8, i8, i8 }
%struct.H5C_cache_entry_t = type { ptr, i64, i64, ptr, i8, ptr, i8, i8, i8, i8, i32, i8, i8, i8, i8, i8, i32, ptr, i32, i32, i32, i32, i32, i8, i8, ptr, ptr, ptr, ptr, ptr, ptr, i8, i32, i8, i64, ptr, i64, i64, i32, i8, i32, i32, i8, ptr, ptr, ptr }
%struct.H5HF_dtable_t = type { %struct.H5HF_dtable_cparam_t, i64, i32, i32, i32, i32, i32, i32, i32, i64, ptr, ptr, ptr, ptr }
%struct.H5HF_dtable_cparam_t = type { i32, i64, i64, i32, i32 }
%struct.H5O_pline_t = type { %struct.H5O_shared_t, i32, i64, i64, ptr }
%struct.H5O_shared_t = type { i32, ptr, i32, %union.anon }
%union.anon = type { %struct.H5O_mesg_loc_t }
%struct.H5O_mesg_loc_t = type { i32, i64 }
%struct.H5HF_block_iter_t = type { i8, ptr }

@H5HF_init_g = external global i8, align 1
@H5_libterm_g = external global i8, align 1

; Function Attrs: nounwind uwtable
define i32 @H5HF__man_get_obj_len(ptr noundef %0, ptr noundef %1, ptr noundef %2) #0 {
  %4 = alloca ptr, align 8
  %5 = alloca ptr, align 8
  %6 = alloca ptr, align 8
  %7 = alloca i64, align 8
  store ptr %0, ptr %4, align 8, !tbaa !3
  store ptr %1, ptr %5, align 8, !tbaa !15
  store ptr %2, ptr %6, align 8, !tbaa !60
  %8 = load i8, ptr @H5HF_init_g, align 1, !tbaa !19, !range !21, !noundef !22
  %9 = trunc i8 %8 to i1
  br i1 %9, label %14, label %10

10:                                               ; preds = %3
  %11 = load i8, ptr @H5_libterm_g, align 1, !tbaa !19, !range !21, !noundef !22
  %12 = trunc i8 %11 to i1
  %13 = xor i1 %12, true
  br label %14

14:                                               ; preds = %10, %3
  %15 = phi i1 [ true, %3 ], [ %13, %10 ]
  %16 = xor i1 %15, true
  %17 = xor i1 %16, true
  %18 = zext i1 %17 to i32
  %19 = sext i32 %18 to i64
  %20 = call i64 @llvm.expect.i64(i64 %19, i64 1)
  %21 = icmp ne i64 %20, 0
  br i1 %21, label %22, label %70

22:                                               ; preds = %14
  %23 = load ptr, ptr %5, align 8, !tbaa !15
  %24 = getelementptr inbounds nuw i8, ptr %23, i32 1
  store ptr %24, ptr %5, align 8, !tbaa !15
  %25 = load ptr, ptr %4, align 8, !tbaa !3
  %26 = getelementptr inbounds nuw %struct.H5HF_hdr_t, ptr %25, i32 0, i32 43
  %27 = load i8, ptr %26, align 1, !tbaa !53
  %28 = zext i8 %27 to i32
  %29 = load ptr, ptr %5, align 8, !tbaa !15
  %30 = sext i32 %28 to i64
  %31 = getelementptr inbounds i8, ptr %29, i64 %30
  store ptr %31, ptr %5, align 8, !tbaa !15
  br label %32

32:                                               ; preds = %22
  call void @llvm.lifetime.start.p0(i64 8, ptr %7) #5
  %33 = load ptr, ptr %6, align 8, !tbaa !60
  store i64 0, ptr %33, align 8, !tbaa !8
  %34 = load ptr, ptr %4, align 8, !tbaa !3
  %35 = getelementptr inbounds nuw %struct.H5HF_hdr_t, ptr %34, i32 0, i32 44
  %36 = load i8, ptr %35, align 2, !tbaa !56
  %37 = zext i8 %36 to i32
  %38 = load ptr, ptr %5, align 8, !tbaa !15
  %39 = sext i32 %37 to i64
  %40 = getelementptr inbounds i8, ptr %38, i64 %39
  store ptr %40, ptr %5, align 8, !tbaa !15
  store i64 0, ptr %7, align 8, !tbaa !8
  br label %41

41:                                               ; preds = %58, %32
  %42 = load i64, ptr %7, align 8, !tbaa !8
  %43 = load ptr, ptr %4, align 8, !tbaa !3
  %44 = getelementptr inbounds nuw %struct.H5HF_hdr_t, ptr %43, i32 0, i32 44
  %45 = load i8, ptr %44, align 2, !tbaa !56
  %46 = zext i8 %45 to i64
  %47 = icmp ult i64 %42, %46
  br i1 %47, label %48, label %61

48:                                               ; preds = %41
  %49 = load ptr, ptr %6, align 8, !tbaa !60
  %50 = load i64, ptr %49, align 8, !tbaa !8
  %51 = shl i64 %50, 8
  %52 = load ptr, ptr %5, align 8, !tbaa !15
  %53 = getelementptr inbounds i8, ptr %52, i32 -1
  store ptr %53, ptr %5, align 8, !tbaa !15
  %54 = load i8, ptr %53, align 1, !tbaa !48
  %55 = zext i8 %54 to i64
  %56 = or i64 %51, %55
  %57 = load ptr, ptr %6, align 8, !tbaa !60
  store i64 %56, ptr %57, align 8, !tbaa !8
  br label %58

58:                                               ; preds = %48
  %59 = load i64, ptr %7, align 8, !tbaa !8
  %60 = add i64 %59, 1
  store i64 %60, ptr %7, align 8, !tbaa !8
  br label %41, !llvm.loop !61

61:                                               ; preds = %41
  %62 = load ptr, ptr %4, align 8, !tbaa !3
  %63 = getelementptr inbounds nuw %struct.H5HF_hdr_t, ptr %62, i32 0, i32 44
  %64 = load i8, ptr %63, align 2, !tbaa !56
  %65 = zext i8 %64 to i32
  %66 = load ptr, ptr %5, align 8, !tbaa !15
  %67 = sext i32 %65 to i64
  %68 = getelementptr inbounds i8, ptr %66, i64 %67
  store ptr %68, ptr %5, align 8, !tbaa !15
  call void @llvm.lifetime.end.p0(i64 8, ptr %7) #5
  br label %69

69:                                               ; preds = %61
  br label %70

70:                                               ; preds = %69, %14
  ret i32 0
}