; Function Attrs: nofree norecurse nosync nounwind memory(read, argmem: readwrite, inaccessiblemem: none) uwtable
define noundef i32 @H5HF__man_get_obj_len(ptr noundef readonly captures(none) %0, ptr noundef readonly captures(none) %1, ptr noundef writeonly captures(none) %2) local_unnamed_addr #4 {
  %4 = load i8, ptr @H5HF_init_g, align 1, !tbaa !10, !range !12, !noundef !13
  %5 = trunc nuw i8 %4 to i1
  %6 = load i8, ptr @H5_libterm_g, align 1, !range !12
  %7 = trunc nuw i8 %6 to i1
  %8 = xor i1 %7, true
  %9 = select i1 %5, i1 true, i1 %8
  br i1 %9, label %10, label %.loopexit, !prof !14

10:                                               ; preds = %3
  %11 = getelementptr inbounds nuw i8, ptr %0, i64 697
  %12 = load i8, ptr %11, align 1, !tbaa !48
  store i64 0, ptr %2, align 8, !tbaa !8
  %13 = getelementptr inbounds nuw i8, ptr %0, i64 698
  %14 = load i8, ptr %13, align 2, !tbaa !51
  %15 = zext i8 %14 to i64
  %.not = icmp eq i8 %14, 0
  br i1 %.not, label %.loopexit, label %.lr.ph

.lr.ph:                                           ; preds = %10
  %16 = getelementptr inbounds nuw i8, ptr %1, i64 1
  %17 = zext i8 %12 to i64
  %18 = getelementptr inbounds nuw i8, ptr %16, i64 %17
  %19 = getelementptr inbounds nuw i8, ptr %18, i64 %15
  br label %20

20:                                               ; preds = %.lr.ph, %20
  %21 = phi i64 [ 0, %.lr.ph ], [ %26, %20 ]
  %.015 = phi i64 [ 0, %.lr.ph ], [ %27, %20 ]
  %.01314 = phi ptr [ %19, %.lr.ph ], [ %23, %20 ]
  %22 = shl i64 %21, 8
  %23 = getelementptr inbounds i8, ptr %.01314, i64 -1
  %24 = load i8, ptr %23, align 1, !tbaa !41
  %25 = zext i8 %24 to i64
  %26 = or disjoint i64 %22, %25
  store i64 %26, ptr %2, align 8, !tbaa !8
  %27 = add nuw nsw i64 %.015, 1
  %exitcond.not = icmp eq i64 %27, %15
  br i1 %exitcond.not, label %.loopexit, label %20, !llvm.loop !55

.loopexit:                                        ; preds = %20, %10, %3
  ret i32 0
}